target datalayout = "e-m:e-p270:32:32-p271:32:32-p272:64:64-i64:64-i128:128-f80:128-n8:16:32:64-S128"
target triple = "x86_64-pc-linux-gnu"

@hf_elink_icapability_capability_bits = internal global i32 0, align 4
@hf_elink_icapability_capability_speed_duplex_array_count = internal global i32 0, align 4
@hf_elink_icapability_capability_speed = internal global i32 0, align 4
@hf_elink_icapability_capability_duplex = internal global i32 0, align 4
@ett_elink_icapability_bits = internal global i32 0, align 4

; Function Attrs: null_pointer_is_valid sspstrong uwtable
define internal i32 @dissect_elink_interface_capability(ptr noundef %0, ptr noundef %1, ptr noundef %2, ptr noundef %3, i32 noundef %4, i32 noundef %5) #0 {
  %7 = alloca ptr, align 8
  %8 = alloca ptr, align 8
  %9 = alloca ptr, align 8
  %10 = alloca ptr, align 8
  %11 = alloca i32, align 4
  %12 = alloca i32, align 4
  %13 = alloca i32, align 4
  %14 = alloca i32, align 4
  store ptr %0, ptr %7, align 8
  store ptr %1, ptr %8, align 8
  store ptr %2, ptr %9, align 8
  store ptr %3, ptr %10, align 8
  store i32 %4, ptr %11, align 4
  store i32 %5, ptr %12, align 4
  %15 = load ptr, ptr %8, align 8
  %16 = load ptr, ptr %10, align 8
  %17 = load i32, ptr %11, align 4
  %18 = load i32, ptr @hf_elink_icapability_capability_bits, align 4
  %19 = load i32, ptr @ett_elink_icapability_bits, align 4
  %20 = call ptr @proto_tree_add_bitmask(ptr noundef %15, ptr noundef %16, i32 noundef %17, i32 noundef %18, i32 noundef %19, ptr noundef @dissect_elink_interface_capability.bits, i32 noundef -2147483648)
  %21 = load i32, ptr %11, align 4
  %22 = add i32 %21, 4
  store i32 %22, ptr %11, align 4
  call void @llvm.lifetime.start.p0(i64 4, ptr %13) #14
  %23 = load ptr, ptr %8, align 8
  %24 = load i32, ptr @hf_elink_icapability_capability_speed_duplex_array_count, align 4
  %25 = load ptr, ptr %10, align 8
  %26 = load i32, ptr %11, align 4
  %27 = call ptr @proto_tree_add_item_ret_uint(ptr noundef %23, i32 noundef %24, ptr noundef %25, i32 noundef %26, i32 noundef 1, i32 noundef 0, ptr noundef %13)
  %28 = load i32, ptr %11, align 4
  %29 = add i32 %28, 1
  store i32 %29, ptr %11, align 4
  call void @llvm.lifetime.start.p0(i64 4, ptr %14) #14
  store i32 0, ptr %14, align 4
  br label %30

30:                                               ; preds = %50, %6
  %31 = load i32, ptr %14, align 4
  %32 = load i32, ptr %13, align 4
  %33 = icmp ult i32 %31, %32
  br i1 %33, label %35, label %34

34:                                               ; preds = %30
  call void @llvm.lifetime.end.p0(i64 4, ptr %14) #14
  br label %53

35:                                               ; preds = %30
  %36 = load ptr, ptr %8, align 8
  %37 = load i32, ptr @hf_elink_icapability_capability_speed, align 4
  %38 = load ptr, ptr %10, align 8
  %39 = load i32, ptr %11, align 4
  %40 = call ptr @proto_tree_add_item(ptr noundef %36, i32 noundef %37, ptr noundef %38, i32 noundef %39, i32 noundef 2, i32 noundef -2147483648)
  %41 = load i32, ptr %11, align 4
  %42 = add i32 %41, 2
  store i32 %42, ptr %11, align 4
  %43 = load ptr, ptr %8, align 8
  %44 = load i32, ptr @hf_elink_icapability_capability_duplex, align 4
  %45 = load ptr, ptr %10, align 8
  %46 = load i32, ptr %11, align 4
  %47 = call ptr @proto_tree_add_item(ptr noundef %43, i32 noundef %44, ptr noundef %45, i32 noundef %46, i32 noundef 1, i32 noundef -2147483648)
  %48 = load i32, ptr %11, align 4
  %49 = add i32 %48, 1
  store i32 %49, ptr %11, align 4
  br label %50

50:                                               ; preds = %35
  %51 = load i32, ptr %14, align 4
  %52 = add i32 %51, 1
  store i32 %52, ptr %14, align 4
  br label %30, !llvm.loop !12

53:                                               ; preds = %34
  %54 = load i32, ptr %13, align 4
  %55 = mul i32 %54, 3
  %56 = add i32 5, %55
  call void @llvm.lifetime.end.p0(i64 4, ptr %13) #14
  ret i32 %56
}