; Function Attrs: null_pointer_is_valid sspstrong uwtable
define internal i32 @dissect_elink_interface_capability(ptr readnone captures(none) %0, ptr noundef %1, ptr readnone captures(none) %2, ptr noundef %3, i32 noundef %4, i32 %5) #0 {
  %7 = alloca i32, align 4
  %8 = load i32, ptr @hf_elink_icapability_capability_bits, align 4
  %9 = load i32, ptr @ett_elink_icapability_bits, align 4
  %10 = tail call ptr @proto_tree_add_bitmask(ptr noundef %1, ptr noundef %3, i32 noundef %4, i32 noundef %8, i32 noundef %9, ptr noundef nonnull @dissect_elink_interface_capability.bits, i32 noundef -2147483648)
  %11 = add i32 %4, 4
  call void @llvm.lifetime.start.p0(i64 4, ptr nonnull %7) #12
  %12 = load i32, ptr @hf_elink_icapability_capability_speed_duplex_array_count, align 4
  %13 = call ptr @proto_tree_add_item_ret_uint(ptr noundef %1, i32 noundef %12, ptr noundef %3, i32 noundef %11, i32 noundef 1, i32 noundef 0, ptr noundef nonnull %7)
  %14 = load i32, ptr %7, align 4
  %.not = icmp eq i32 %14, 0
  br i1 %.not, label %._crit_edge, label %.lr.ph.preheader

.lr.ph.preheader:                                 ; preds = %6
  %15 = add i32 %4, 5
  br label %.lr.ph

._crit_edge.loopexit:                             ; preds = %.lr.ph
  %16 = mul i32 %25, 3
  %17 = add i32 %16, 5
  br label %._crit_edge

._crit_edge:                                      ; preds = %._crit_edge.loopexit, %6
  %.lcssa = phi i32 [ 5, %6 ], [ %17, %._crit_edge.loopexit ]
  call void @llvm.lifetime.end.p0(i64 4, ptr nonnull %7) #12
  ret i32 %.lcssa

.lr.ph:                                           ; preds = %.lr.ph.preheader, %.lr.ph
  %.020 = phi i32 [ %24, %.lr.ph ], [ 0, %.lr.ph.preheader ]
  %.01719 = phi i32 [ %23, %.lr.ph ], [ %15, %.lr.ph.preheader ]
  %18 = load i32, ptr @hf_elink_icapability_capability_speed, align 4
  %19 = call ptr @proto_tree_add_item(ptr noundef %1, i32 noundef %18, ptr noundef %3, i32 noundef %.01719, i32 noundef 2, i32 noundef -2147483648)
  %20 = add i32 %.01719, 2
  %21 = load i32, ptr @hf_elink_icapability_capability_duplex, align 4
  %22 = call ptr @proto_tree_add_item(ptr noundef %1, i32 noundef %21, ptr noundef %3, i32 noundef %20, i32 noundef 1, i32 noundef -2147483648)
  %23 = add i32 %.01719, 3
  %24 = add nuw i32 %.020, 1
  %25 = load i32, ptr %7, align 4
  %26 = icmp ult i32 %24, %25
  br i1 %26, label %.lr.ph, label %._crit_edge.loopexit, !llvm.loop !10
}